; Function Attrs: null_pointer_is_valid sspstrong uwtable
define hidden i32 @mapi_dissect_struct_FolderModifiedNotification_3010(ptr noundef %0, i32 noundef %1, ptr noundef %2, ptr noundef %3, ptr noundef %4, ptr noundef %5, i32 noundef %6, i32 %7) local_unnamed_addr #0 {
  %9 = getelementptr inbounds nuw i8, ptr %4, i64 26
  %10 = load i8, ptr %9, align 2, !range !9, !noundef !10
  store i8 1, ptr %9, align 2
  %.not = icmp eq ptr %3, null
  br i1 %.not, label %15, label %11

11:                                               ; preds = %8
  %12 = tail call ptr @proto_tree_add_item(ptr noundef nonnull %3, i32 noundef %6, ptr noundef %0, i32 noundef %1, i32 noundef -1, i32 noundef 0)
  %13 = load i32, ptr @ett_mapi_FolderModifiedNotification_3010, align 4
  %14 = tail call ptr @proto_item_add_subtree(ptr noundef %12, i32 noundef %13)
  br label %15

15:                                               ; preds = %11, %8
  %.044 = phi ptr [ %14, %11 ], [ null, %8 ]
  %.0 = phi ptr [ %12, %11 ], [ null, %8 ]
  %16 = load i32, ptr @hf_mapi_FolderModifiedNotification_3010_FID, align 4
  %17 = tail call i32 @dissect_ndr_uint64(ptr noundef %0, i32 noundef %1, ptr noundef %2, ptr noundef %.044, ptr noundef %4, ptr noundef %5, i32 noundef %16, ptr noundef null)
  %18 = load i32, ptr @hf_mapi_FolderModifiedNotification_3010_TagCount, align 4
  %19 = tail call i32 @PIDL_dissect_uint16(ptr noundef %0, i32 noundef %17, ptr noundef %2, ptr noundef %.044, ptr noundef %4, ptr noundef %5, i32 noundef %18, i32 noundef 0)
  %20 = tail call i32 @dissect_ndr_ucarray(ptr noundef %0, i32 noundef %19, ptr noundef %2, ptr noundef %.044, ptr noundef %4, ptr noundef %5, ptr noundef nonnull @mapi_dissect_element_FolderModifiedNotification_3010_Tags_)
  %21 = load i32, ptr @hf_mapi_FolderModifiedNotification_3010_TotalMessageCount, align 4
  %22 = tail call i32 @PIDL_dissect_uint32(ptr noundef %0, i32 noundef %20, ptr noundef %2, ptr noundef %.044, ptr noundef %4, ptr noundef %5, i32 noundef %21, i32 noundef 0)
  %23 = load i32, ptr @hf_mapi_FolderModifiedNotification_3010_UnreadMessageCount, align 4
  %24 = tail call i32 @PIDL_dissect_uint32(ptr noundef %0, i32 noundef %22, ptr noundef %2, ptr noundef %.044, ptr noundef %4, ptr noundef %5, i32 noundef %23, i32 noundef 0)
  %25 = sub i32 %24, %1
  tail call void @proto_item_set_len(ptr noundef %.0, i32 noundef %25)
  store i8 %10, ptr %9, align 2
  ret i32 %24
}